	.file	"max.c"
	.text
	.globl	max1
	.type	max1, @function
max1:
.LFB0:
	.cfi_startproc
	endbr64
	pushq	%rbp
	.cfi_def_cfa_offset 16
	.cfi_offset 6, -16
	movq	%rsp, %rbp
	.cfi_def_cfa_register 6
	movl	%edi, -4(%rbp)
	movl	%esi, -8(%rbp)
	movl	-8(%rbp), %edx
	movl	-4(%rbp), %eax
	cmpl	%eax, %edx
	cmovge	%edx, %eax
	popq	%rbp
	.cfi_def_cfa 7, 8
	ret
	.cfi_endproc
.LFE0:
	.size	max1, .-max1
	.globl	max2
	.type	max2, @function
max2:
.LFB1:
	.cfi_startproc
	endbr64
	pushq	%rbp
	.cfi_def_cfa_offset 16
	.cfi_offset 6, -16
	movq	%rsp, %rbp
	.cfi_def_cfa_register 6
	movl	%edi, -20(%rbp)
	movl	%esi, -24(%rbp)
	movl	-20(%rbp), %eax
	cmpl	-24(%rbp), %eax
	setg	%al
	movzbl	%al, %eax
	movl	%eax, -4(%rbp)
	cmpl	$0, -4(%rbp)
	je	.L4
	movl	-20(%rbp), %eax
	movl	%eax, -8(%rbp)
	jmp	.L5
.L4:
	movl	-24(%rbp), %eax
	movl	%eax, -8(%rbp)
.L5:
	movl	-8(%rbp), %eax
	popq	%rbp
	.cfi_def_cfa 7, 8
	ret
	.cfi_endproc
.LFE1:
	.size	max2, .-max2
	.ident	"GCC: (Ubuntu 13.3.0-6ubuntu2~24.04) 13.3.0"
	.section	.note.GNU-stack,"",@progbits
	.section	.note.gnu.property,"a"
	.align 8
	.long	1f - 0f
	.long	4f - 1f
	.long	5
0:
	.string	"GNU"
1:
	.align 8
	.long	0xc0000002
	.long	3f - 2f
2:
	.long	0x3
3:
	.align 8
4:
